target datalayout = "e-m:e-p270:32:32-p271:32:32-p272:64:64-i64:64-i128:128-f80:128-n8:16:32:64-S128"
target triple = "x86_64-pc-linux-gnu"

%"class.ODDLParser::Value" = type { i32, i64, ptr, ptr }

@_ZN10ODDLParser5ValueD1Ev = hidden unnamed_addr alias void (ptr), ptr @_ZN10ODDLParser5ValueD2Ev

; Function Attrs: mustprogress nounwind uwtable
define hidden void @_ZN10ODDLParser5ValueD2Ev(ptr noundef nonnull align 8 dereferenceable(32) %0) unnamed_addr #2 align 2 {
  %2 = alloca ptr, align 8
  %3 = alloca ptr, align 8
  store ptr %0, ptr %2, align 8
  %4 = load ptr, ptr %2, align 8
  %5 = getelementptr inbounds nuw %"class.ODDLParser::Value", ptr %4, i32 0, i32 2
  %6 = load ptr, ptr %5, align 8
  %7 = icmp ne ptr %6, null
  br i1 %7, label %8, label %30

8:                                                ; preds = %1
  %9 = getelementptr inbounds nuw %"class.ODDLParser::Value", ptr %4, i32 0, i32 0
  %10 = load i32, ptr %9, align 8
  %11 = icmp eq i32 %10, 13
  br i1 %11, label %12, label %23

12:                                               ; preds = %8
  call void @llvm.lifetime.start.p0(i64 8, ptr %3) #1
  %13 = getelementptr inbounds nuw %"class.ODDLParser::Value", ptr %4, i32 0, i32 2
  %14 = load ptr, ptr %13, align 8
  store ptr %14, ptr %3, align 8
  %15 = load ptr, ptr %3, align 8
  %16 = icmp ne ptr %15, null
  br i1 %16, label %17, label %22

17:                                               ; preds = %12
  %18 = load ptr, ptr %3, align 8
  %19 = icmp eq ptr %18, null
  br i1 %19, label %21, label %20

20:                                               ; preds = %17
  call void @_ZN10ODDLParser9ReferenceD1Ev(ptr noundef nonnull align 8 dereferenceable(16) %18) #1
  call void @_ZdlPvm(ptr noundef %18, i64 noundef 16) #17
  br label %21

21:                                               ; preds = %20, %17
  br label %22

22:                                               ; preds = %21, %12
  call void @llvm.lifetime.end.p0(i64 8, ptr %3) #1
  br label %29

23:                                               ; preds = %8
  %24 = getelementptr inbounds nuw %"class.ODDLParser::Value", ptr %4, i32 0, i32 2
  %25 = load ptr, ptr %24, align 8
  %26 = icmp eq ptr %25, null
  br i1 %26, label %28, label %27

27:                                               ; preds = %23
  call void @_ZdaPv(ptr noundef %25) #17
  br label %28

28:                                               ; preds = %27, %23
  br label %29

29:                                               ; preds = %28, %22
  br label %30

30:                                               ; preds = %29, %1
  %31 = getelementptr inbounds nuw %"class.ODDLParser::Value", ptr %4, i32 0, i32 3
  %32 = load ptr, ptr %31, align 8
  %33 = icmp eq ptr %32, null
  br i1 %33, label %35, label %34

34:                                               ; preds = %30
  call void @_ZN10ODDLParser5ValueD1Ev(ptr noundef nonnull align 8 dereferenceable(32) %32) #1
  call void @_ZdlPvm(ptr noundef %32, i64 noundef 32) #17
  br label %35

35:                                               ; preds = %34, %30
  ret void
}