; Function Attrs: mustprogress nounwind uwtable
define hidden void @_ZN10ODDLParser5ValueD2Ev(ptr noundef nonnull readonly align 8 captures(none) dereferenceable(32) %0) unnamed_addr #7 align 2 {
  %2 = getelementptr inbounds nuw i8, ptr %0, i64 16
  %3 = load ptr, ptr %2, align 8
  %.not = icmp eq ptr %3, null
  br i1 %.not, label %9, label %4

4:                                                ; preds = %1
  %5 = load i32, ptr %0, align 8
  %6 = icmp eq i32 %5, 13
  br i1 %6, label %7, label %8

7:                                                ; preds = %4
  tail call void @_ZN10ODDLParser9ReferenceD1Ev(ptr noundef nonnull align 8 dereferenceable(16) %3) #25
  tail call void @_ZdlPvm(ptr noundef nonnull %3, i64 noundef 16) #26
  br label %9

8:                                                ; preds = %4
  tail call void @_ZdaPv(ptr noundef nonnull %3) #26
  br label %9

9:                                                ; preds = %7, %8, %1
  %10 = getelementptr inbounds nuw i8, ptr %0, i64 24
  %11 = load ptr, ptr %10, align 8
  %12 = icmp eq ptr %11, null
  br i1 %12, label %common.ret4, label %13

common.ret4:                                      ; preds = %9, %13
  ret void

13:                                               ; preds = %9
  tail call void @_ZN10ODDLParser5ValueD2Ev(ptr noundef nonnull align 8 dereferenceable(32) %11) #25
  tail call void @_ZdlPvm(ptr noundef nonnull %11, i64 noundef 32) #26
  br label %common.ret4
}